; Function Attrs: nofree norecurse nosync nounwind memory(readwrite, inaccessiblemem: none) uwtable
define hidden void @ThreeByteBgrToByteGrayScaleConvert(ptr noundef %0, ptr noundef %1, i32 noundef %2, i32 noundef %3, i32 noundef %4, i32 noundef %5, i32 noundef %6, i32 noundef %7, i32 noundef %8, ptr nocapture noundef readonly %9, ptr nocapture noundef readonly %10, ptr nocapture readnone %11, ptr nocapture readnone %12) #1 {
  %14 = getelementptr inbounds i8, ptr %9, i64 32
  %15 = load i32, ptr %14, align 8
  %16 = getelementptr inbounds i8, ptr %10, i64 32
  %17 = load i32, ptr %16, align 8
  %18 = sub i32 %17, %2
  %19 = sext i32 %18 to i64
  %20 = ptrtoint ptr %0 to i64
  %21 = sext i32 %15 to i64
  br label %22

22:                                               ; preds = %54, %13
  %.032 = phi ptr [ %1, %13 ], [ %56, %54 ]
  %.031 = phi i32 [ %5, %13 ], [ %57, %54 ]
  %.0 = phi i32 [ %3, %13 ], [ %58, %54 ]
  %23 = ashr i32 %.031, %8
  %24 = sext i32 %23 to i64
  %25 = mul nsw i64 %24, %21
  %26 = add nsw i64 %25, %20
  %27 = inttoptr i64 %26 to ptr
  br label %28

28:                                               ; preds = %28, %22
  %.034 = phi i32 [ %2, %22 ], [ %53, %28 ]
  %.033 = phi i32 [ %4, %22 ], [ %52, %28 ]
  %.1 = phi ptr [ %.032, %22 ], [ %51, %28 ]
  %29 = ashr i32 %.033, %8
  %30 = mul nsw i32 %29, 3
  %31 = sext i32 %30 to i64
  %32 = getelementptr inbounds i8, ptr %27, i64 %31
  %33 = load i8, ptr %32, align 1
  %34 = zext i8 %33 to i32
  %35 = getelementptr i8, ptr %32, i64 1
  %36 = load i8, ptr %35, align 1
  %37 = zext i8 %36 to i32
  %38 = getelementptr i8, ptr %32, i64 2
  %39 = load i8, ptr %38, align 1
  %40 = zext i8 %39 to i32
  %41 = mul nuw nsw i32 %40, 77
  %42 = mul nuw nsw i32 %37, 150
  %43 = mul nuw nsw i32 %34, 29
  %44 = add nuw nsw i32 %43, 128
  %45 = add nuw nsw i32 %44, %42
  %46 = add nuw nsw i32 %45, %41
  %47 = lshr i32 %46, 8
  %48 = trunc nuw i32 %47 to i8
  store i8 %48, ptr %.1, align 1
  %49 = ptrtoint ptr %.1 to i64
  %50 = add nsw i64 %49, 1
  %51 = inttoptr i64 %50 to ptr
  %52 = add nsw i32 %.033, %6
  %53 = add i32 %.034, -1
  %.not = icmp eq i32 %53, 0
  br i1 %.not, label %54, label %28, !llvm.loop !26

54:                                               ; preds = %28
  %55 = add nsw i64 %50, %19
  %56 = inttoptr i64 %55 to ptr
  %57 = add nsw i32 %.031, %7
  %58 = add i32 %.0, -1
  %.not36 = icmp eq i32 %58, 0
  br i1 %.not36, label %59, label %22, !llvm.loop !27

59:                                               ; preds = %54
  ret void
}